target datalayout = "e-m:e-p270:32:32-p271:32:32-p272:64:64-i64:64-i128:128-f80:128-n8:16:32:64-S128"
target triple = "x86_64-pc-linux-gnu"

; Function Attrs: nounwind uwtable
define internal i32 @fake_skey_init(ptr noundef %0, ptr noundef %1, ptr noundef %2, i64 noundef %3, ptr noundef %4) #0 {
  %6 = alloca ptr, align 8
  %7 = alloca ptr, align 8
  %8 = alloca ptr, align 8
  %9 = alloca i64, align 8
  %10 = alloca ptr, align 8
  store ptr %0, ptr %6, align 8, !tbaa !28
  store ptr %1, ptr %7, align 8, !tbaa !17
  store ptr %2, ptr %8, align 8, !tbaa !22
  store i64 %3, ptr %9, align 8, !tbaa !26
  store ptr %4, ptr %10, align 8, !tbaa !33
  %11 = load ptr, ptr %7, align 8, !tbaa !17
  %12 = icmp ne ptr %11, null
  br i1 %12, label %13, label %16

13:                                               ; preds = %5
  %14 = load ptr, ptr %6, align 8, !tbaa !28
  %15 = load ptr, ptr %7, align 8, !tbaa !17
  call void @llvm.memcpy.p0.p0.i64(ptr align 1 %14, ptr align 1 %15, i64 48, i1 false)
  br label %16

16:                                               ; preds = %13, %5
  ret i32 1
}

; Function Attrs: nounwind uwtable
define internal i32 @fake_skey_einit(ptr noundef %0, ptr noundef %1, ptr noundef %2, i64 noundef %3, ptr noundef %4) #0 {
  %6 = alloca i32, align 4
  %7 = alloca ptr, align 8
  %8 = alloca ptr, align 8
  %9 = alloca ptr, align 8
  %10 = alloca i64, align 8
  %11 = alloca ptr, align 8
  %12 = alloca ptr, align 8
  %13 = alloca i32, align 4
  store ptr %0, ptr %7, align 8, !tbaa !17
  store ptr %1, ptr %8, align 8, !tbaa !17
  store ptr %2, ptr %9, align 8, !tbaa !22
  store i64 %3, ptr %10, align 8, !tbaa !26
  store ptr %4, ptr %11, align 8, !tbaa !33
  call void @llvm.lifetime.start.p0(i64 8, ptr %12) #6
  %14 = load ptr, ptr %7, align 8, !tbaa !17
  store ptr %14, ptr %12, align 8, !tbaa !28
  %15 = load ptr, ptr %12, align 8, !tbaa !28
  %16 = load ptr, ptr %8, align 8, !tbaa !17
  %17 = load ptr, ptr %9, align 8, !tbaa !22
  %18 = load i64, ptr %10, align 8, !tbaa !26
  %19 = load ptr, ptr %11, align 8, !tbaa !33
  %20 = call i32 @fake_skey_init(ptr noundef %15, ptr noundef %16, ptr noundef %17, i64 noundef %18, ptr noundef %19)
  %21 = icmp ne i32 %20, 1
  br i1 %21, label %22, label %23

22:                                               ; preds = %5
  store i32 0, ptr %6, align 4
  store i32 1, ptr %13, align 4
  br label %24

23:                                               ; preds = %5
  store i32 1, ptr %6, align 4
  store i32 1, ptr %13, align 4
  br label %24

24:                                               ; preds = %23, %22
  call void @llvm.lifetime.end.p0(i64 8, ptr %12) #6
  %25 = load i32, ptr %6, align 4
  ret i32 %25
}