; Function Attrs: mustprogress nofree norecurse nosync nounwind willreturn memory(argmem: readwrite) uwtable
define internal noundef i32 @fake_skey_einit(ptr noundef writeonly captures(none) %0, ptr noundef readonly captures(address_is_null) %1, ptr readnone captures(none) %2, i64 %3, ptr readnone captures(none) %4) #6 {
  %.not.i = icmp eq ptr %1, null
  br i1 %.not.i, label %fake_skey_init.exit, label %6

6:                                                ; preds = %5
  tail call void @llvm.memcpy.p0.p0.i64(ptr noundef nonnull align 1 dereferenceable(48) %0, ptr noundef nonnull readonly align 1 dereferenceable(48) %1, i64 48, i1 false)
  br label %fake_skey_init.exit

fake_skey_init.exit:                              ; preds = %5, %6
  ret i32 1
}